; Function Attrs: nounwind uwtable
define dso_local i64 @pg_table_size(ptr noundef captures(none) %0) local_unnamed_addr #0 {
  %2 = getelementptr inbounds nuw i8, ptr %0, i64 32
  %3 = load i64, ptr %2, align 8
  %4 = trunc i64 %3 to i32
  %5 = tail call ptr @try_relation_open(i32 noundef %4, i32 noundef 1) #9
  %6 = icmp eq ptr %5, null
  br i1 %6, label %7, label %9

7:                                                ; preds = %1
  %8 = getelementptr inbounds nuw i8, ptr %0, i64 28
  store i8 1, ptr %8, align 4
  br label %11

9:                                                ; preds = %1
  %10 = tail call fastcc i64 @calculate_table_size(ptr noundef %5)
  tail call void @relation_close(ptr noundef nonnull %5, i32 noundef 1) #9
  br label %11

11:                                               ; preds = %9, %7
  %.0 = phi i64 [ 0, %7 ], [ %10, %9 ]
  ret i64 %.0
}